target datalayout = "e-m:e-p270:32:32-p271:32:32-p272:64:64-i64:64-i128:128-f80:128-n8:16:32:64-S128"
target triple = "x86_64-pc-linux-gnu"

%"struct.std::atomic.3" = type { %"struct.std::__atomic_base.4" }
%"struct.std::__atomic_base.4" = type { i64 }
%"class.std::chrono::duration" = type { i64 }
%"struct.folly::detail::EventBasePoller::Stats" = type { i32, i32, i64, i64, %"class.std::chrono::duration", %"class.std::chrono::duration", %"class.std::chrono::duration", %"class.std::chrono::duration", %"class.std::chrono::duration", %"class.std::chrono::duration" }
%"class.folly::detail::EventBasePoller" = type { ptr, %"struct.folly::Synchronized" }
%"struct.folly::Synchronized" = type <{ %"struct.folly::detail::EventBasePoller::Stats", %"class.folly::SharedMutexImpl", [4 x i8] }>
%"class.folly::SharedMutexImpl" = type { %"struct.std::atomic" }
%"struct.std::atomic" = type { %"struct.std::__atomic_base" }
%"struct.std::__atomic_base" = type { i32 }
%"class.folly::detail::(anonymous namespace)::EventBasePollerEpoll" = type { %"class.folly::detail::(anonymous namespace)::EventBasePollerImpl", i64, i32, %"class.std::vector.41" }
%"class.folly::detail::(anonymous namespace)::EventBasePollerImpl" = type { %"class.folly::detail::EventBasePoller", i8, %"class.std::vector", %"struct.std::atomic.3", %"struct.folly::detail::(anonymous namespace)::EventBasePollerImpl::Event", %"class.std::vector.19", %"class.std::unique_ptr.24", %"class.std::vector.32", %"struct.std::atomic.37", %"class.folly::detail::(anonymous namespace)::Queue" }
%"class.std::vector" = type { %"struct.std::_Vector_base" }
%"struct.std::_Vector_base" = type { %"struct.std::_Vector_base<folly::detail::(anonymous namespace)::EventBasePollerImpl::Event *, std::allocator<folly::detail::(anonymous namespace)::EventBasePollerImpl::Event *>>::_Vector_impl" }
%"struct.std::_Vector_base<folly::detail::(anonymous namespace)::EventBasePollerImpl::Event *, std::allocator<folly::detail::(anonymous namespace)::EventBasePollerImpl::Event *>>::_Vector_impl" = type { %"struct.std::_Vector_base<folly::detail::(anonymous namespace)::EventBasePollerImpl::Event *, std::allocator<folly::detail::(anonymous namespace)::EventBasePollerImpl::Event *>>::_Vector_impl_data" }
%"struct.std::_Vector_base<folly::detail::(anonymous namespace)::EventBasePollerImpl::Event *, std::allocator<folly::detail::(anonymous namespace)::EventBasePollerImpl::Event *>>::_Vector_impl_data" = type { ptr, ptr, ptr }
%"struct.folly::detail::(anonymous namespace)::EventBasePollerImpl::Event" = type { %"class.folly::detail::EventBasePoller::Handle", ptr, i32, i8, ptr, i8, %"class.folly::Baton" }
%"class.folly::detail::EventBasePoller::Handle" = type { ptr, ptr }
%"class.folly::Baton" = type { %"struct.std::atomic" }
%"class.std::vector.19" = type { %"struct.std::_Vector_base.20" }
%"struct.std::_Vector_base.20" = type { %"struct.std::_Vector_base<std::unique_ptr<folly::detail::(anonymous namespace)::EventBasePollerImpl::Event>, std::allocator<std::unique_ptr<folly::detail::(anonymous namespace)::EventBasePollerImpl::Event>>>::_Vector_impl" }
%"struct.std::_Vector_base<std::unique_ptr<folly::detail::(anonymous namespace)::EventBasePollerImpl::Event>, std::allocator<std::unique_ptr<folly::detail::(anonymous namespace)::EventBasePollerImpl::Event>>>::_Vector_impl" = type { %"struct.std::_Vector_base<std::unique_ptr<folly::detail::(anonymous namespace)::EventBasePollerImpl::Event>, std::allocator<std::unique_ptr<folly::detail::(anonymous namespace)::EventBasePollerImpl::Event>>>::_Vector_impl_data" }
%"struct.std::_Vector_base<std::unique_ptr<folly::detail::(anonymous namespace)::EventBasePollerImpl::Event>, std::allocator<std::unique_ptr<folly::detail::(anonymous namespace)::EventBasePollerImpl::Event>>>::_Vector_impl_data" = type { ptr, ptr, ptr }
%"class.std::unique_ptr.24" = type { %"struct.std::__uniq_ptr_data.25" }
%"struct.std::__uniq_ptr_data.25" = type { %"class.std::__uniq_ptr_impl.26" }
%"class.std::__uniq_ptr_impl.26" = type { %"class.std::tuple.27" }
%"class.std::tuple.27" = type { %"struct.std::_Tuple_impl.28" }
%"struct.std::_Tuple_impl.28" = type { %"struct.std::_Head_base.31" }
%"struct.std::_Head_base.31" = type { ptr }
%"class.std::vector.32" = type { %"struct.std::_Vector_base.33" }
%"struct.std::_Vector_base.33" = type { %"struct.std::_Vector_base<folly::detail::EventBasePoller::Handle *, std::allocator<folly::detail::EventBasePoller::Handle *>>::_Vector_impl" }
%"struct.std::_Vector_base<folly::detail::EventBasePoller::Handle *, std::allocator<folly::detail::EventBasePoller::Handle *>>::_Vector_impl" = type { %"struct.std::_Vector_base<folly::detail::EventBasePoller::Handle *, std::allocator<folly::detail::EventBasePoller::Handle *>>::_Vector_impl_data" }
%"struct.std::_Vector_base<folly::detail::EventBasePoller::Handle *, std::allocator<folly::detail::EventBasePoller::Handle *>>::_Vector_impl_data" = type { ptr, ptr, ptr }
%"struct.std::atomic.37" = type { %"struct.std::__atomic_base.38" }
%"struct.std::__atomic_base.38" = type { i8 }
%"class.folly::detail::(anonymous namespace)::Queue" = type { %"struct.std::atomic.39" }
%"struct.std::atomic.39" = type { %"struct.std::__atomic_base.40" }
%"struct.std::__atomic_base.40" = type { ptr }
%"class.std::vector.41" = type { %"struct.std::_Vector_base.42" }
%"struct.std::_Vector_base.42" = type { %"struct.std::_Vector_base<epoll_event, std::allocator<epoll_event>>::_Vector_impl" }
%"struct.std::_Vector_base<epoll_event, std::allocator<epoll_event>>::_Vector_impl" = type { %"struct.std::_Vector_base<epoll_event, std::allocator<epoll_event>>::_Vector_impl_data" }
%"struct.std::_Vector_base<epoll_event, std::allocator<epoll_event>>::_Vector_impl_data" = type { ptr, ptr, ptr }
%"class.google::LogMessageVoidify" = type { i8 }
%"class.google::ErrnoLogMessage" = type { %"class.google::LogMessage" }
%"class.google::LogMessage" = type { ptr, ptr }
%"class.std::ios_base" = type { ptr, i64, i64, i32, i32, i32, ptr, %"struct.std::ios_base::_Words", [8 x %"struct.std::ios_base::_Words"], i32, ptr, %"class.std::locale" }
%"struct.std::ios_base::_Words" = type { ptr, i64 }
%"class.std::locale" = type { ptr }

@.str.5 = private unnamed_addr constant [124 x i8] c"generated/home/dtcxzyw/WorkSpace/Projects/compilers/llvm-opt-benchmark/bench/folly/folly/folly/io/async/EventBasePoller.cpp\00", align 1
@.str.41 = private unnamed_addr constant [25 x i8] c"Check failed: epFd_ > 0 \00", align 1

; Function Attrs: inlinehint mustprogress nounwind uwtable
define linkonce_odr noundef i32 @_ZStorSt12_Ios_IostateS_(i32 noundef %0, i32 noundef %1) #9 comdat {
  %3 = alloca i32, align 4
  %4 = alloca i32, align 4
  store i32 %0, ptr %3, align 4, !tbaa !278
  store i32 %1, ptr %4, align 4, !tbaa !278
  %5 = load i32, ptr %3, align 4, !tbaa !278
  %6 = load i32, ptr %4, align 4, !tbaa !278
  %7 = or i32 %5, %6
  ret i32 %7
}

; Function Attrs: mustprogress nounwind uwtable
define available_externally noundef i32 @_ZNKSt9basic_iosIcSt11char_traitsIcEE7rdstateEv(ptr noundef nonnull align 8 dereferenceable(264) %0) #0 align 2 {
  %2 = alloca ptr, align 8
  store ptr %0, ptr %2, align 8, !tbaa !276
  %3 = load ptr, ptr %2, align 8
  %4 = getelementptr inbounds nuw %"class.std::ios_base", ptr %3, i32 0, i32 5
  %5 = load i32, ptr %4, align 8, !tbaa !280
  ret i32 %5
}

; Function Attrs: mustprogress nounwind uwtable
define linkonce_odr noundef i64 @_ZNSt11char_traitsIcE6lengthEPKc(ptr noundef %0) #0 comdat align 2 {
  %2 = alloca ptr, align 8
  store ptr %0, ptr %2, align 8, !tbaa !18
  %3 = load ptr, ptr %2, align 8, !tbaa !18
  %4 = call i64 @strlen(ptr noundef %3) #13
  ret i64 %4
}

; Function Attrs: mustprogress uwtable
define available_externally void @_ZNSt9basic_iosIcSt11char_traitsIcEE8setstateESt12_Ios_Iostate(ptr noundef nonnull align 8 dereferenceable(264) %0, i32 noundef %1) #4 align 2 {
  %3 = alloca ptr, align 8
  %4 = alloca i32, align 4
  store ptr %0, ptr %3, align 8, !tbaa !276
  store i32 %1, ptr %4, align 4, !tbaa !278
  %5 = load ptr, ptr %3, align 8
  %6 = call noundef i32 @_ZNKSt9basic_iosIcSt11char_traitsIcEE7rdstateEv(ptr noundef nonnull align 8 dereferenceable(264) %5)
  %7 = load i32, ptr %4, align 4, !tbaa !278
  %8 = call noundef i32 @_ZStorSt12_Ios_IostateS_(i32 noundef %6, i32 noundef %7)
  call void @_ZNSt9basic_iosIcSt11char_traitsIcEE5clearESt12_Ios_Iostate(ptr noundef nonnull align 8 dereferenceable(264) %5, i32 noundef %8)
  ret void
}

; Function Attrs: mustprogress nounwind uwtable
define linkonce_odr void @_ZN6google17LogMessageVoidifyanERSo(ptr noundef nonnull align 1 dereferenceable(1) %0, ptr noundef nonnull align 8 dereferenceable(8) %1) #0 comdat align 2 {
  %3 = alloca ptr, align 8
  %4 = alloca ptr, align 8
  store ptr %0, ptr %3, align 8, !tbaa !191
  store ptr %1, ptr %4, align 8, !tbaa !193
  ret void
}

; Function Attrs: inlinehint mustprogress uwtable
define available_externally noundef nonnull align 8 dereferenceable(8) ptr @_ZStlsISt11char_traitsIcEERSt13basic_ostreamIcT_ES5_PKc(ptr noundef nonnull align 8 dereferenceable(8) %0, ptr noundef %1) #2 {
  %3 = alloca ptr, align 8
  %4 = alloca ptr, align 8
  store ptr %0, ptr %3, align 8, !tbaa !193
  store ptr %1, ptr %4, align 8, !tbaa !18
  %5 = load ptr, ptr %4, align 8, !tbaa !18
  %6 = icmp ne ptr %5, null
  br i1 %6, label %13, label %7

7:                                                ; preds = %2
  %8 = load ptr, ptr %3, align 8, !tbaa !193
  %9 = load ptr, ptr %8, align 8, !tbaa !66
  %10 = getelementptr i8, ptr %9, i64 -24
  %11 = load i64, ptr %10, align 8
  %12 = getelementptr inbounds i8, ptr %8, i64 %11
  call void @_ZNSt9basic_iosIcSt11char_traitsIcEE8setstateESt12_Ios_Iostate(ptr noundef nonnull align 8 dereferenceable(264) %12, i32 noundef 1)
  br label %19

13:                                               ; preds = %2
  %14 = load ptr, ptr %3, align 8, !tbaa !193
  %15 = load ptr, ptr %4, align 8, !tbaa !18
  %16 = load ptr, ptr %4, align 8, !tbaa !18
  %17 = call noundef i64 @_ZNSt11char_traitsIcE6lengthEPKc(ptr noundef %16)
  %18 = call noundef nonnull align 8 dereferenceable(8) ptr @_ZSt16__ostream_insertIcSt11char_traitsIcEERSt13basic_ostreamIT_T0_ES6_PKS3_l(ptr noundef nonnull align 8 dereferenceable(8) %14, ptr noundef %15, i64 noundef %17)
  br label %19

19:                                               ; preds = %13, %7
  %20 = load ptr, ptr %3, align 8, !tbaa !193
  ret ptr %20
}

; Function Attrs: mustprogress nounwind uwtable
define linkonce_odr void @_ZN6google17LogMessageVoidifyC2Ev(ptr noundef nonnull align 1 dereferenceable(1) %0) unnamed_addr #0 comdat align 2 {
  %2 = alloca ptr, align 8
  store ptr %0, ptr %2, align 8, !tbaa !191
  ret void
}

; Function Attrs: mustprogress uwtable
define internal void @_ZN5folly6detail12_GLOBAL__N_120EventBasePollerEpoll5setupEv(ptr noundef nonnull align 8 dereferenceable(288) %0) unnamed_addr #4 align 2 personality ptr @__gxx_personality_v0 {
  %2 = alloca ptr, align 8
  %3 = alloca %"class.google::LogMessageVoidify", align 1
  %4 = alloca %"class.google::ErrnoLogMessage", align 8
  %5 = alloca i1, align 1
  %6 = alloca { i64, i64 }, align 8
  %7 = alloca i1, align 1
  %8 = alloca ptr, align 8
  %9 = alloca i32, align 4
  store ptr %0, ptr %2, align 8, !tbaa !95
  %10 = load ptr, ptr %2, align 8
  %11 = call i32 @epoll_create1(i32 noundef 524288) #13
  %12 = getelementptr inbounds nuw %"class.folly::detail::(anonymous namespace)::EventBasePollerEpoll", ptr %10, i32 0, i32 2
  store i32 %11, ptr %12, align 8, !tbaa !150
  %13 = getelementptr inbounds nuw %"class.folly::detail::(anonymous namespace)::EventBasePollerEpoll", ptr %10, i32 0, i32 2
  %14 = load i32, ptr %13, align 8, !tbaa !150
  %15 = icmp sgt i32 %14, 0
  %16 = xor i1 %15, true
  %17 = zext i1 %16 to i64
  %18 = call i64 @llvm.expect.i64(i64 %17, i64 0)
  %19 = icmp ne i64 %18, 0
  call void @llvm.lifetime.start.p0(i64 1, ptr %3) #13
  store i1 false, ptr %5, align 1
  store i1 false, ptr %7, align 1
  br i1 %19, label %21, label %20

20:                                               ; preds = %1
  br label %26

21:                                               ; preds = %1
  call void @_ZN6google17LogMessageVoidifyC2Ev(ptr noundef nonnull align 1 dereferenceable(1) %3)
  call void @llvm.lifetime.start.p0(i64 16, ptr %4) #13
  store i1 true, ptr %5, align 1
  call void @llvm.lifetime.start.p0(i64 16, ptr %6) #13
  store { i64, i64 } { i64 ptrtoint (ptr @_ZN6google10LogMessage9SendToLogEv to i64), i64 0 }, ptr %6, align 8, !tbaa !34
  call void @_ZN6google15ErrnoLogMessageC1EPKciiiMNS_10LogMessageEFvvE(ptr noundef nonnull align 8 dereferenceable(16) %4, ptr noundef @.str.5, i32 noundef 395, i32 noundef 3, i32 noundef 0, ptr noundef byval({ i64, i64 }) align 8 %6)
  call void @llvm.lifetime.end.p0(i64 16, ptr %6) #13
  store i1 true, ptr %7, align 1
  %22 = invoke noundef nonnull align 8 dereferenceable(8) ptr @_ZN6google10LogMessage6streamEv(ptr noundef nonnull align 8 dereferenceable(16) %4)
          to label %23 unwind label %33

23:                                               ; preds = %21
  %24 = invoke noundef nonnull align 8 dereferenceable(8) ptr @_ZStlsISt11char_traitsIcEERSt13basic_ostreamIcT_ES5_PKc(ptr noundef nonnull align 8 dereferenceable(8) %22, ptr noundef @.str.41)
          to label %25 unwind label %33

25:                                               ; preds = %23
  call void @_ZN6google17LogMessageVoidifyanERSo(ptr noundef nonnull align 1 dereferenceable(1) %3, ptr noundef nonnull align 8 dereferenceable(8) %24)
  br label %26

26:                                               ; preds = %25, %20
  %27 = load i1, ptr %7, align 1
  br i1 %27, label %28, label %29

28:                                               ; preds = %26
  call void @_ZN6google15ErrnoLogMessageD1Ev(ptr noundef nonnull align 8 dereferenceable(16) %4) #13
  br label %29

29:                                               ; preds = %28, %26
  %30 = load i1, ptr %5, align 1
  br i1 %30, label %31, label %32

31:                                               ; preds = %29
  call void @llvm.lifetime.end.p0(i64 16, ptr %4) #13
  br label %32

32:                                               ; preds = %31, %29
  call void @llvm.lifetime.end.p0(i64 1, ptr %3) #13
  ret void

33:                                               ; preds = %23, %21
  %34 = landingpad { ptr, i32 }
          cleanup
  %35 = extractvalue { ptr, i32 } %34, 0
  store ptr %35, ptr %8, align 8
  %36 = extractvalue { ptr, i32 } %34, 1
  store i32 %36, ptr %9, align 4
  %37 = load i1, ptr %7, align 1
  br i1 %37, label %38, label %39

38:                                               ; preds = %33
  call void @_ZN6google15ErrnoLogMessageD1Ev(ptr noundef nonnull align 8 dereferenceable(16) %4) #13
  br label %39

39:                                               ; preds = %38, %33
  %40 = load i1, ptr %5, align 1
  br i1 %40, label %41, label %42

41:                                               ; preds = %39
  call void @llvm.lifetime.end.p0(i64 16, ptr %4) #13
  br label %42

42:                                               ; preds = %41, %39
  call void @llvm.lifetime.end.p0(i64 1, ptr %3) #13
  br label %43

43:                                               ; preds = %42
  %44 = load ptr, ptr %8, align 8
  %45 = load i32, ptr %9, align 4
  %46 = insertvalue { ptr, i32 } poison, ptr %44, 0
  %47 = insertvalue { ptr, i32 } %46, i32 %45, 1
  resume { ptr, i32 } %47
}