; Function Attrs: mustprogress uwtable
define internal void @_ZN5folly6detail12_GLOBAL__N_120EventBasePollerEpoll5setupEv(ptr noundef nonnull writeonly align 8 captures(none) dereferenceable(288) initializes((256, 260)) %0) unnamed_addr #2 align 2 personality ptr @__gxx_personality_v0 {
  %2 = alloca %"class.google::ErrnoLogMessage", align 8
  %3 = alloca { i64, i64 }, align 8
  %4 = tail call i32 @epoll_create1(i32 noundef 524288) #26
  %5 = getelementptr inbounds nuw i8, ptr %0, i64 256
  store i32 %4, ptr %5, align 8, !tbaa !105
  %6 = icmp slt i32 %4, 1
  br i1 %6, label %7, label %.critedge7, !prof !95

7:                                                ; preds = %1
  call void @llvm.lifetime.start.p0(i64 16, ptr nonnull %2) #26
  call void @llvm.lifetime.start.p0(i64 16, ptr nonnull %3) #26
  store i64 ptrtoint (ptr @_ZN6google10LogMessage9SendToLogEv to i64), ptr %3, align 8, !tbaa !17
  %.fca.1.gep = getelementptr inbounds nuw i8, ptr %3, i64 8
  store i64 0, ptr %.fca.1.gep, align 8, !tbaa !17
  call void @_ZN6google15ErrnoLogMessageC1EPKciiiMNS_10LogMessageEFvvE(ptr noundef nonnull align 8 dereferenceable(16) %2, ptr noundef nonnull @.str.5, i32 noundef 395, i32 noundef 3, i32 noundef 0, ptr noundef nonnull byval({ i64, i64 }) align 8 %3)
  call void @llvm.lifetime.end.p0(i64 16, ptr nonnull %3) #26
  %8 = invoke noundef nonnull align 8 dereferenceable(8) ptr @_ZN6google10LogMessage6streamEv(ptr noundef nonnull align 8 dereferenceable(16) %2)
          to label %9 unwind label %11

9:                                                ; preds = %7
  %10 = invoke noundef nonnull align 8 dereferenceable(8) ptr @_ZSt16__ostream_insertIcSt11char_traitsIcEERSt13basic_ostreamIT_T0_ES6_PKS3_l(ptr noundef nonnull align 8 dereferenceable(8) %8, ptr noundef nonnull @.str.41, i64 noundef 24)
          to label %.critedge unwind label %11

.critedge:                                        ; preds = %9
  call void @_ZN6google15ErrnoLogMessageD1Ev(ptr noundef nonnull align 8 dereferenceable(16) %2) #26
  call void @llvm.lifetime.end.p0(i64 16, ptr nonnull %2) #26
  br label %.critedge7

.critedge7:                                       ; preds = %1, %.critedge
  ret void

11:                                               ; preds = %9, %7
  %12 = landingpad { ptr, i32 }
          cleanup
  call void @_ZN6google15ErrnoLogMessageD1Ev(ptr noundef nonnull align 8 dereferenceable(16) %2) #26
  call void @llvm.lifetime.end.p0(i64 16, ptr nonnull %2) #26
  resume { ptr, i32 } %12
}